; Function Attrs: mustprogress nounwind uwtable
define hidden noundef zeroext i1 @_ZN24G1ConcurrentRefineThread16maybe_deactivateEv(ptr noundef nonnull align 8 dereferenceable(1104) %0) unnamed_addr #0 align 2 {
  %2 = getelementptr inbounds i8, ptr %0, i64 1096
  %3 = load ptr, ptr %2, align 8
  %4 = getelementptr inbounds i8, ptr %0, i64 1088
  %5 = load i32, ptr %4, align 8
  %6 = tail call noundef zeroext i1 @_ZNK18G1ConcurrentRefine16is_thread_wantedEj(ptr noundef nonnull align 8 dereferenceable(136) %3, i32 noundef %5) #9
  br i1 %6, label %12, label %_ZN11MutexLockerD2Ev.exit

_ZN11MutexLockerD2Ev.exit:                        ; preds = %1
  %7 = getelementptr inbounds i8, ptr %0, i64 936
  tail call void @_ZN5Mutex28lock_without_safepoint_checkEv(ptr noundef nonnull align 8 dereferenceable(104) %7) #9
  %8 = getelementptr inbounds i8, ptr %0, i64 1040
  %9 = load i8, ptr %8, align 8
  %10 = trunc i8 %9 to i1
  store i8 0, ptr %8, align 8
  %11 = xor i1 %10, true
  tail call void @_ZN5Mutex6unlockEv(ptr noundef nonnull align 8 dereferenceable(104) %7) #9
  br label %12

12:                                               ; preds = %1, %_ZN11MutexLockerD2Ev.exit
  %.0 = phi i1 [ %11, %_ZN11MutexLockerD2Ev.exit ], [ false, %1 ]
  ret i1 %.0
}